target datalayout = "e-m:e-p270:32:32-p271:32:32-p272:64:64-i64:64-i128:128-f80:128-n8:16:32:64-S128"
target triple = "x86_64-pc-linux-gnu"

%"class.smt2::scanner" = type { ptr, i8, i32, i8, i8, i32, i32, %class.symbol, %class.rational, i32, [256 x i8], [1024 x i8], i32, i32, %class.svector, ptr, i8, %class.svector, %class.svector }
%class.symbol = type { ptr }
%class.rational = type { %class.mpq }
%class.mpq = type { %class.mpz, %class.mpz }
%class.mpz = type { i32, i8, ptr }
%class.svector = type { %class.vector }
%class.vector = type { ptr }

; Function Attrs: mustprogress nounwind uwtable
define linkonce_odr hidden noundef ptr @_ZN6vectorIcLb0EjE5beginEv(ptr noundef nonnull align 8 dereferenceable(8) %0) #5 comdat align 2 {
  %2 = alloca ptr, align 8
  store ptr %0, ptr %2, align 8, !tbaa !34
  %3 = load ptr, ptr %2, align 8
  %4 = getelementptr inbounds nuw %class.vector, ptr %3, i32 0, i32 0
  %5 = load ptr, ptr %4, align 8, !tbaa !37
  ret ptr %5
}

; Function Attrs: mustprogress uwtable
define linkonce_odr hidden noundef nonnull align 8 dereferenceable(8) ptr @_ZN6vectorIcLb0EjE9push_backEOc(ptr noundef nonnull align 8 dereferenceable(8) %0, ptr noundef nonnull align 1 dereferenceable(1) %1) #4 comdat align 2 {
  %3 = alloca ptr, align 8
  %4 = alloca ptr, align 8
  store ptr %0, ptr %3, align 8, !tbaa !34
  store ptr %1, ptr %4, align 8, !tbaa !36
  %5 = load ptr, ptr %3, align 8
  %6 = getelementptr inbounds nuw %class.vector, ptr %5, i32 0, i32 0
  %7 = load ptr, ptr %6, align 8, !tbaa !37
  %8 = icmp eq ptr %7, null
  br i1 %8, label %19, label %9

9:                                                ; preds = %2
  %10 = getelementptr inbounds nuw %class.vector, ptr %5, i32 0, i32 0
  %11 = load ptr, ptr %10, align 8, !tbaa !37
  %12 = getelementptr inbounds i32, ptr %11, i64 -1
  %13 = load i32, ptr %12, align 4, !tbaa !38
  %14 = getelementptr inbounds nuw %class.vector, ptr %5, i32 0, i32 0
  %15 = load ptr, ptr %14, align 8, !tbaa !37
  %16 = getelementptr inbounds i32, ptr %15, i64 -2
  %17 = load i32, ptr %16, align 4, !tbaa !38
  %18 = icmp eq i32 %13, %17
  br i1 %18, label %19, label %20

19:                                               ; preds = %9, %2
  call void @_ZN6vectorIcLb0EjE13expand_vectorEv(ptr noundef nonnull align 8 dereferenceable(8) %5)
  br label %20

20:                                               ; preds = %19, %9
  %21 = getelementptr inbounds nuw %class.vector, ptr %5, i32 0, i32 0
  %22 = load ptr, ptr %21, align 8, !tbaa !37
  %23 = getelementptr inbounds nuw %class.vector, ptr %5, i32 0, i32 0
  %24 = load ptr, ptr %23, align 8, !tbaa !37
  %25 = getelementptr inbounds i32, ptr %24, i64 -1
  %26 = load i32, ptr %25, align 4, !tbaa !38
  %27 = zext i32 %26 to i64
  %28 = getelementptr inbounds nuw i8, ptr %22, i64 %27
  %29 = load ptr, ptr %4, align 8, !tbaa !36
  %30 = load i8, ptr %29, align 1, !tbaa !32
  store i8 %30, ptr %28, align 1, !tbaa !32
  %31 = getelementptr inbounds nuw %class.vector, ptr %5, i32 0, i32 0
  %32 = load ptr, ptr %31, align 8, !tbaa !37
  %33 = getelementptr inbounds i32, ptr %32, i64 -1
  %34 = load i32, ptr %33, align 4, !tbaa !38
  %35 = add i32 %34, 1
  store i32 %35, ptr %33, align 4, !tbaa !38
  ret ptr %5
}

; Function Attrs: mustprogress uwtable
define linkonce_odr hidden noundef nonnull align 8 dereferenceable(8) ptr @_ZN6vectorIcLb0EjE9push_backERKc(ptr noundef nonnull align 8 dereferenceable(8) %0, ptr noundef nonnull align 1 dereferenceable(1) %1) #4 comdat align 2 {
  %3 = alloca ptr, align 8
  %4 = alloca ptr, align 8
  store ptr %0, ptr %3, align 8, !tbaa !34
  store ptr %1, ptr %4, align 8, !tbaa !36
  %5 = load ptr, ptr %3, align 8
  %6 = getelementptr inbounds nuw %class.vector, ptr %5, i32 0, i32 0
  %7 = load ptr, ptr %6, align 8, !tbaa !37
  %8 = icmp eq ptr %7, null
  br i1 %8, label %19, label %9

9:                                                ; preds = %2
  %10 = getelementptr inbounds nuw %class.vector, ptr %5, i32 0, i32 0
  %11 = load ptr, ptr %10, align 8, !tbaa !37
  %12 = getelementptr inbounds i32, ptr %11, i64 -1
  %13 = load i32, ptr %12, align 4, !tbaa !38
  %14 = getelementptr inbounds nuw %class.vector, ptr %5, i32 0, i32 0
  %15 = load ptr, ptr %14, align 8, !tbaa !37
  %16 = getelementptr inbounds i32, ptr %15, i64 -2
  %17 = load i32, ptr %16, align 4, !tbaa !38
  %18 = icmp eq i32 %13, %17
  br i1 %18, label %19, label %20

19:                                               ; preds = %9, %2
  call void @_ZN6vectorIcLb0EjE13expand_vectorEv(ptr noundef nonnull align 8 dereferenceable(8) %5)
  br label %20

20:                                               ; preds = %19, %9
  %21 = getelementptr inbounds nuw %class.vector, ptr %5, i32 0, i32 0
  %22 = load ptr, ptr %21, align 8, !tbaa !37
  %23 = getelementptr inbounds nuw %class.vector, ptr %5, i32 0, i32 0
  %24 = load ptr, ptr %23, align 8, !tbaa !37
  %25 = getelementptr inbounds i32, ptr %24, i64 -1
  %26 = load i32, ptr %25, align 4, !tbaa !38
  %27 = zext i32 %26 to i64
  %28 = getelementptr inbounds nuw i8, ptr %22, i64 %27
  %29 = load ptr, ptr %4, align 8, !tbaa !36
  %30 = load i8, ptr %29, align 1, !tbaa !32
  store i8 %30, ptr %28, align 1, !tbaa !32
  %31 = getelementptr inbounds nuw %class.vector, ptr %5, i32 0, i32 0
  %32 = load ptr, ptr %31, align 8, !tbaa !37
  %33 = getelementptr inbounds i32, ptr %32, i64 -1
  %34 = load i32, ptr %33, align 4, !tbaa !38
  %35 = add i32 %34, 1
  store i32 %35, ptr %33, align 4, !tbaa !38
  ret ptr %5
}

; Function Attrs: mustprogress nounwind uwtable
define linkonce_odr hidden noundef nonnull align 1 dereferenceable(1) ptr @_ZN6vectorIcLb0EjEixEj(ptr noundef nonnull align 8 dereferenceable(8) %0, i32 noundef %1) #5 comdat align 2 {
  %3 = alloca ptr, align 8
  %4 = alloca i32, align 4
  store ptr %0, ptr %3, align 8, !tbaa !34
  store i32 %1, ptr %4, align 4, !tbaa !38
  %5 = load ptr, ptr %3, align 8
  %6 = getelementptr inbounds nuw %class.vector, ptr %5, i32 0, i32 0
  %7 = load ptr, ptr %6, align 8, !tbaa !37
  %8 = load i32, ptr %4, align 4, !tbaa !38
  %9 = zext i32 %8 to i64
  %10 = getelementptr inbounds nuw i8, ptr %7, i64 %9
  ret ptr %10
}

; Function Attrs: mustprogress nounwind uwtable
define linkonce_odr hidden void @_ZN6vectorIcLb0EjE5resetEv(ptr noundef nonnull align 8 dereferenceable(8) %0) #5 comdat align 2 {
  %2 = alloca ptr, align 8
  store ptr %0, ptr %2, align 8, !tbaa !34
  %3 = load ptr, ptr %2, align 8
  %4 = getelementptr inbounds nuw %class.vector, ptr %3, i32 0, i32 0
  %5 = load ptr, ptr %4, align 8, !tbaa !37
  %6 = icmp ne ptr %5, null
  br i1 %6, label %7, label %11

7:                                                ; preds = %1
  %8 = getelementptr inbounds nuw %class.vector, ptr %3, i32 0, i32 0
  %9 = load ptr, ptr %8, align 8, !tbaa !37
  %10 = getelementptr inbounds i32, ptr %9, i64 -1
  store i32 0, ptr %10, align 4, !tbaa !38
  br label %11

11:                                               ; preds = %7, %1
  ret void
}

; Function Attrs: mustprogress uwtable
define hidden noundef ptr @_ZN4smt27scanner10cached_strEjj(ptr noundef nonnull align 8 dereferenceable(1408) %0, i32 noundef %1, i32 noundef %2) #4 align 2 {
  %4 = alloca ptr, align 8
  %5 = alloca i32, align 4
  %6 = alloca i32, align 4
  %7 = alloca i32, align 4
  %8 = alloca i8, align 1
  store ptr %0, ptr %4, align 8, !tbaa !3
  store i32 %1, ptr %5, align 4, !tbaa !38
  store i32 %2, ptr %6, align 4, !tbaa !38
  %9 = load ptr, ptr %4, align 8
  %10 = getelementptr inbounds nuw %"class.smt2::scanner", ptr %9, i32 0, i32 18
  call void @_ZN6vectorIcLb0EjE5resetEv(ptr noundef nonnull align 8 dereferenceable(8) %10)
  br label %11

11:                                               ; preds = %25, %3
  %12 = load i32, ptr %5, align 4, !tbaa !38
  %13 = load i32, ptr %6, align 4, !tbaa !38
  %14 = icmp ult i32 %12, %13
  br i1 %14, label %15, label %23

15:                                               ; preds = %11
  %16 = getelementptr inbounds nuw %"class.smt2::scanner", ptr %9, i32 0, i32 17
  %17 = load i32, ptr %5, align 4, !tbaa !38
  %18 = call noundef nonnull align 1 dereferenceable(1) ptr @_ZN6vectorIcLb0EjEixEj(ptr noundef nonnull align 8 dereferenceable(8) %16, i32 noundef %17)
  %19 = load i8, ptr %18, align 1, !tbaa !32
  %20 = sext i8 %19 to i32
  %21 = call i32 @isspace(i32 noundef %20) #20
  %22 = icmp ne i32 %21, 0
  br label %23

23:                                               ; preds = %15, %11
  %24 = phi i1 [ false, %11 ], [ %22, %15 ]
  br i1 %24, label %25, label %28

25:                                               ; preds = %23
  %26 = load i32, ptr %5, align 4, !tbaa !38
  %27 = add i32 %26, 1
  store i32 %27, ptr %5, align 4, !tbaa !38
  br label %11, !llvm.loop !92

28:                                               ; preds = %23
  br label %29

29:                                               ; preds = %44, %28
  %30 = load i32, ptr %5, align 4, !tbaa !38
  %31 = load i32, ptr %6, align 4, !tbaa !38
  %32 = icmp ult i32 %30, %31
  br i1 %32, label %33, label %42

33:                                               ; preds = %29
  %34 = getelementptr inbounds nuw %"class.smt2::scanner", ptr %9, i32 0, i32 17
  %35 = load i32, ptr %6, align 4, !tbaa !38
  %36 = sub i32 %35, 1
  %37 = call noundef nonnull align 1 dereferenceable(1) ptr @_ZN6vectorIcLb0EjEixEj(ptr noundef nonnull align 8 dereferenceable(8) %34, i32 noundef %36)
  %38 = load i8, ptr %37, align 1, !tbaa !32
  %39 = sext i8 %38 to i32
  %40 = call i32 @isspace(i32 noundef %39) #20
  %41 = icmp ne i32 %40, 0
  br label %42

42:                                               ; preds = %33, %29
  %43 = phi i1 [ false, %29 ], [ %41, %33 ]
  br i1 %43, label %44, label %47

44:                                               ; preds = %42
  %45 = load i32, ptr %6, align 4, !tbaa !38
  %46 = add i32 %45, -1
  store i32 %46, ptr %6, align 4, !tbaa !38
  br label %29, !llvm.loop !93

47:                                               ; preds = %42
  call void @llvm.lifetime.start.p0(i64 4, ptr %7) #3
  %48 = load i32, ptr %5, align 4, !tbaa !38
  store i32 %48, ptr %7, align 4, !tbaa !38
  br label %49

49:                                               ; preds = %60, %47
  %50 = load i32, ptr %7, align 4, !tbaa !38
  %51 = load i32, ptr %6, align 4, !tbaa !38
  %52 = icmp ult i32 %50, %51
  br i1 %52, label %54, label %53

53:                                               ; preds = %49
  call void @llvm.lifetime.end.p0(i64 4, ptr %7) #3
  br label %63

54:                                               ; preds = %49
  %55 = getelementptr inbounds nuw %"class.smt2::scanner", ptr %9, i32 0, i32 18
  %56 = getelementptr inbounds nuw %"class.smt2::scanner", ptr %9, i32 0, i32 17
  %57 = load i32, ptr %7, align 4, !tbaa !38
  %58 = call noundef nonnull align 1 dereferenceable(1) ptr @_ZN6vectorIcLb0EjEixEj(ptr noundef nonnull align 8 dereferenceable(8) %56, i32 noundef %57)
  %59 = call noundef nonnull align 8 dereferenceable(8) ptr @_ZN6vectorIcLb0EjE9push_backERKc(ptr noundef nonnull align 8 dereferenceable(8) %55, ptr noundef nonnull align 1 dereferenceable(1) %58)
  br label %60

60:                                               ; preds = %54
  %61 = load i32, ptr %7, align 4, !tbaa !38
  %62 = add i32 %61, 1
  store i32 %62, ptr %7, align 4, !tbaa !38
  br label %49, !llvm.loop !94

63:                                               ; preds = %53
  %64 = getelementptr inbounds nuw %"class.smt2::scanner", ptr %9, i32 0, i32 18
  call void @llvm.lifetime.start.p0(i64 1, ptr %8) #3
  store i8 0, ptr %8, align 1, !tbaa !32
  %65 = call noundef nonnull align 8 dereferenceable(8) ptr @_ZN6vectorIcLb0EjE9push_backEOc(ptr noundef nonnull align 8 dereferenceable(8) %64, ptr noundef nonnull align 1 dereferenceable(1) %8)
  call void @llvm.lifetime.end.p0(i64 1, ptr %8) #3
  %66 = getelementptr inbounds nuw %"class.smt2::scanner", ptr %9, i32 0, i32 18
  %67 = call noundef ptr @_ZN6vectorIcLb0EjE5beginEv(ptr noundef nonnull align 8 dereferenceable(8) %66)
  ret ptr %67
}