; Function Attrs: mustprogress uwtable
define hidden noundef ptr @_ZN4smt27scanner10cached_strEjj(ptr noundef nonnull align 8 dereferenceable(1408) %0, i32 noundef %1, i32 noundef %2) local_unnamed_addr #3 align 2 {
  %4 = getelementptr inbounds nuw i8, ptr %0, i64 1400
  %5 = load ptr, ptr %4, align 8, !tbaa !22
  %.not.i = icmp eq ptr %5, null
  br i1 %.not.i, label %_ZN6vectorIcLb0EjE5resetEv.exit, label %6

6:                                                ; preds = %3
  %7 = getelementptr inbounds i8, ptr %5, i64 -4
  store i32 0, ptr %7, align 4, !tbaa !23
  br label %_ZN6vectorIcLb0EjE5resetEv.exit

_ZN6vectorIcLb0EjE5resetEv.exit:                  ; preds = %3, %6
  %8 = icmp ult i32 %1, %2
  %9 = getelementptr inbounds nuw i8, ptr %0, i64 1392
  %10 = load ptr, ptr %9, align 8
  br i1 %8, label %.lr.ph, label %.critedge

.lr.ph:                                           ; preds = %_ZN6vectorIcLb0EjE5resetEv.exit
  %11 = zext i32 %1 to i64
  br label %12

12:                                               ; preds = %.lr.ph, %17
  %indvars.iv = phi i64 [ %11, %.lr.ph ], [ %indvars.iv.next, %17 ]
  %13 = getelementptr inbounds nuw i8, ptr %10, i64 %indvars.iv
  %14 = load i8, ptr %13, align 1, !tbaa !24
  %15 = sext i8 %14 to i32
  %16 = tail call i32 @isspace(i32 noundef %15) #26
  %.not = icmp eq i32 %16, 0
  br i1 %.not, label %.critedge.loopexit.split.loop.exit35, label %17

17:                                               ; preds = %12
  %indvars.iv.next = add nuw nsw i64 %indvars.iv, 1
  %lftr.wideiv = trunc i64 %indvars.iv.next to i32
  %exitcond.not = icmp eq i32 %2, %lftr.wideiv
  br i1 %exitcond.not, label %.critedge, label %12, !llvm.loop !77

.critedge.loopexit.split.loop.exit35:             ; preds = %12
  %18 = trunc nuw i64 %indvars.iv to i32
  br label %.critedge

.critedge:                                        ; preds = %17, %.critedge.loopexit.split.loop.exit35, %_ZN6vectorIcLb0EjE5resetEv.exit
  %.016.lcssa = phi i32 [ %1, %_ZN6vectorIcLb0EjE5resetEv.exit ], [ %18, %.critedge.loopexit.split.loop.exit35 ], [ %2, %17 ]
  %19 = getelementptr inbounds nuw i8, ptr %0, i64 1392
  %20 = zext i32 %2 to i64
  %21 = zext i32 %.016.lcssa to i64
  %umin = tail call i32 @llvm.umin.i32(i32 %.016.lcssa, i32 %2)
  br label %22

22:                                               ; preds = %24, %.critedge
  %indvars.iv27 = phi i64 [ %25, %24 ], [ %20, %.critedge ]
  %23 = icmp ugt i64 %indvars.iv27, %21
  br i1 %23, label %24, label %.critedge2

24:                                               ; preds = %22
  %25 = add nsw i64 %indvars.iv27, -1
  %26 = getelementptr inbounds nuw i8, ptr %10, i64 %25
  %27 = load i8, ptr %26, align 1, !tbaa !24
  %28 = sext i8 %27 to i32
  %29 = tail call i32 @isspace(i32 noundef %28) #26
  %.not17 = icmp eq i32 %29, 0
  br i1 %.not17, label %.critedge2.split.loop.exit37, label %22, !llvm.loop !78

.critedge2.split.loop.exit37:                     ; preds = %24
  %30 = trunc nuw i64 %indvars.iv27 to i32
  br label %.critedge2

.critedge2:                                       ; preds = %22, %.critedge2.split.loop.exit37
  %.015.lcssa = phi i32 [ %30, %.critedge2.split.loop.exit37 ], [ %umin, %22 ]
  %31 = icmp ult i32 %.016.lcssa, %.015.lcssa
  br i1 %31, label %.lr.ph25, label %._crit_edge

._crit_edge:                                      ; preds = %.critedge2
  %32 = icmp eq ptr %5, null
  br i1 %32, label %39, label %._crit_edge.thread

._crit_edge.thread:                               ; preds = %_ZN6vectorIcLb0EjE9push_backERKc.exit, %._crit_edge
  %33 = phi ptr [ %5, %._crit_edge ], [ %64, %_ZN6vectorIcLb0EjE9push_backERKc.exit ]
  %34 = getelementptr inbounds i8, ptr %33, i64 -4
  %35 = load i32, ptr %34, align 4, !tbaa !23
  %36 = getelementptr inbounds i8, ptr %33, i64 -8
  %37 = load i32, ptr %36, align 4, !tbaa !23
  %38 = icmp eq i32 %35, %37
  br i1 %38, label %39, label %_ZN6vectorIcLb0EjE9push_backEOc.exit

39:                                               ; preds = %._crit_edge.thread, %._crit_edge
  tail call void @_ZN6vectorIcLb0EjE13expand_vectorEv(ptr noundef nonnull align 8 dereferenceable(8) %4)
  %.pre.i = load ptr, ptr %4, align 8, !tbaa !22
  %.phi.trans.insert.i = getelementptr inbounds i8, ptr %.pre.i, i64 -4
  %.pre2.i = load i32, ptr %.phi.trans.insert.i, align 4, !tbaa !23
  br label %_ZN6vectorIcLb0EjE9push_backEOc.exit

_ZN6vectorIcLb0EjE9push_backEOc.exit:             ; preds = %._crit_edge.thread, %39
  %40 = phi i32 [ %.pre2.i, %39 ], [ %35, %._crit_edge.thread ]
  %41 = phi ptr [ %.pre.i, %39 ], [ %33, %._crit_edge.thread ]
  %42 = zext i32 %40 to i64
  %43 = getelementptr inbounds nuw i8, ptr %41, i64 %42
  store i8 0, ptr %43, align 1, !tbaa !24
  %44 = load ptr, ptr %4, align 8, !tbaa !22
  %45 = getelementptr inbounds i8, ptr %44, i64 -4
  %46 = load i32, ptr %45, align 4, !tbaa !23
  %47 = add i32 %46, 1
  store i32 %47, ptr %45, align 4, !tbaa !23
  ret ptr %44

.lr.ph25:                                         ; preds = %.critedge2, %_ZN6vectorIcLb0EjE9push_backERKc.exit
  %48 = phi ptr [ %64, %_ZN6vectorIcLb0EjE9push_backERKc.exit ], [ %5, %.critedge2 ]
  %indvars.iv30 = phi i64 [ %indvars.iv.next31, %_ZN6vectorIcLb0EjE9push_backERKc.exit ], [ %21, %.critedge2 ]
  %49 = load ptr, ptr %19, align 8, !tbaa !22
  %50 = getelementptr inbounds nuw i8, ptr %49, i64 %indvars.iv30
  %51 = icmp eq ptr %48, null
  br i1 %51, label %58, label %52

52:                                               ; preds = %.lr.ph25
  %53 = getelementptr inbounds i8, ptr %48, i64 -4
  %54 = load i32, ptr %53, align 4, !tbaa !23
  %55 = getelementptr inbounds i8, ptr %48, i64 -8
  %56 = load i32, ptr %55, align 4, !tbaa !23
  %57 = icmp eq i32 %54, %56
  br i1 %57, label %58, label %_ZN6vectorIcLb0EjE9push_backERKc.exit

58:                                               ; preds = %52, %.lr.ph25
  tail call void @_ZN6vectorIcLb0EjE13expand_vectorEv(ptr noundef nonnull align 8 dereferenceable(8) %4)
  %.pre.i18 = load ptr, ptr %4, align 8, !tbaa !22
  %.phi.trans.insert.i19 = getelementptr inbounds i8, ptr %.pre.i18, i64 -4
  %.pre2.i20 = load i32, ptr %.phi.trans.insert.i19, align 4, !tbaa !23
  br label %_ZN6vectorIcLb0EjE9push_backERKc.exit

_ZN6vectorIcLb0EjE9push_backERKc.exit:            ; preds = %52, %58
  %59 = phi i32 [ %.pre2.i20, %58 ], [ %54, %52 ]
  %60 = phi ptr [ %.pre.i18, %58 ], [ %48, %52 ]
  %61 = zext i32 %59 to i64
  %62 = getelementptr inbounds nuw i8, ptr %60, i64 %61
  %63 = load i8, ptr %50, align 1, !tbaa !24
  store i8 %63, ptr %62, align 1, !tbaa !24
  %64 = load ptr, ptr %4, align 8, !tbaa !22
  %65 = getelementptr inbounds i8, ptr %64, i64 -4
  %66 = load i32, ptr %65, align 4, !tbaa !23
  %67 = add i32 %66, 1
  store i32 %67, ptr %65, align 4, !tbaa !23
  %indvars.iv.next31 = add nuw nsw i64 %indvars.iv30, 1
  %lftr.wideiv33 = trunc i64 %indvars.iv.next31 to i32
  %exitcond34.not = icmp eq i32 %.015.lcssa, %lftr.wideiv33
  br i1 %exitcond34.not, label %._crit_edge.thread, label %.lr.ph25, !llvm.loop !79
}